; ModuleID = 'source-C-CXX/29/146.c'
source_filename = "source-C-CXX/29/146.c"
target datalayout = "e-m:e-p270:32:32-p271:32:32-p272:64:64-i64:64-f80:128-n8:16:32:64-S128"
target triple = "x86_64-pc-linux-gnu"

@.str = private unnamed_addr constant [3 x i8] c"%d\00", align 1

; Function Attrs: nofree nounwind sspstrong uwtable
define dso_local i32 @main() local_unnamed_addr #0 {
  %1 = alloca i32, align 4
  %2 = bitcast i32* %1 to i8*
  call void @llvm.lifetime.start.p0i8(i64 4, i8* nonnull %2) #3
  %3 = call i32 (i8*, ...) @__isoc99_scanf(i8* getelementptr inbounds ([3 x i8], [3 x i8]* @.str, i64 0, i64 0), i32* nonnull %1)
  %4 = load i32, i32* %1, align 4, !tbaa !5
  %5 = icmp slt i32 %4, 1
  br i1 %5, label %26, label %6

6:                                                ; preds = %0, %22
  %7 = phi i32 [ %23, %22 ], [ 0, %0 ]
  %8 = phi i32 [ %24, %22 ], [ 1, %0 ]
  switch i32 %8, label %9 [
    i32 17, label %22
    i32 27, label %22
    i32 37, label %22
    i32 47, label %22
    i32 57, label %22
    i32 67, label %22
  ]

9:                                                ; preds = %6
  %10 = add nsw i32 %8, -71
  %11 = icmp ult i32 %10, 6
  %12 = and i32 %8, 2147483646
  %13 = icmp eq i32 %12, 78
  %14 = or i1 %11, %13
  br i1 %14, label %22, label %15

15:                                               ; preds = %9
  switch i32 %8, label %16 [
    i32 87, label %22
    i32 97, label %22
  ]

16:                                               ; preds = %15
  %17 = urem i32 %8, 7
  %18 = icmp eq i32 %17, 0
  br i1 %18, label %22, label %19

19:                                               ; preds = %16
  %20 = mul nsw i32 %8, %8
  %21 = add nsw i32 %7, %20
  br label %22

22:                                               ; preds = %16, %15, %15, %9, %6, %6, %6, %6, %6, %6, %19
  %23 = phi i32 [ %21, %19 ], [ %7, %6 ], [ %7, %6 ], [ %7, %6 ], [ %7, %6 ], [ %7, %6 ], [ %7, %6 ], [ %7, %9 ], [ %7, %15 ], [ %7, %15 ], [ %7, %16 ]
  %24 = add nuw i32 %8, 1
  %25 = icmp eq i32 %8, %4
  br i1 %25, label %26, label %6, !llvm.loop !9

26:                                               ; preds = %22, %0
  %27 = phi i32 [ 0, %0 ], [ %23, %22 ]
  %28 = call i32 (i8*, ...) @printf(i8* nonnull dereferenceable(1) getelementptr inbounds ([3 x i8], [3 x i8]* @.str, i64 0, i64 0), i32 %27)
  call void @llvm.lifetime.end.p0i8(i64 4, i8* nonnull %2) #3
  ret i32 0
}

; Function Attrs: argmemonly mustprogress nofree nosync nounwind willreturn
declare void @llvm.lifetime.start.p0i8(i64 immarg, i8* nocapture) #1

; Function Attrs: nofree nounwind
declare noundef i32 @__isoc99_scanf(i8* nocapture noundef readonly, ...) local_unnamed_addr #2

; Function Attrs: nofree nounwind
declare noundef i32 @printf(i8* nocapture noundef readonly, ...) local_unnamed_addr #2

; Function Attrs: argmemonly mustprogress nofree nosync nounwind willreturn
declare void @llvm.lifetime.end.p0i8(i64 immarg, i8* nocapture) #1


!llvm.module.flags = !{!0, !1, !2, !3}
!llvm.ident = !{!4}

!0 = !{i32 1, !"wchar_size", i32 4}
!1 = !{i32 7, !"PIC Level", i32 2}
!2 = !{i32 7, !"PIE Level", i32 2}
!3 = !{i32 7, !"uwtable", i32 1}
!4 = !{!"clang version 13.0.0"}
!5 = !{!6, !6, i64 0}
!6 = !{!"int", !7, i64 0}
!7 = !{!"omnipotent char", !8, i64 0}
!8 = !{!"Simple C/C++ TBAA"}
!9 = distinct !{!9, !10}
!10 = !{!"llvm.loop.mustprogress"}
